; Function Attrs: mustprogress nofree norecurse nosync nounwind willreturn memory(argmem: write) uwtable
define internal noundef i32 @mov_read_mdat(ptr noundef writeonly captures(none) %0, ptr readnone captures(none) %1, i32 %2, i64 %3) #7 {
  %5 = icmp eq i64 %3, 0
  br i1 %5, label %8, label %6

6:                                                ; preds = %4
  %7 = getelementptr inbounds nuw i8, ptr %0, i64 44
  store i32 1, ptr %7, align 4, !tbaa !136
  br label %8

8:                                                ; preds = %4, %6
  ret i32 0
}